
 Start  Stop   Length Name               Class

 00000H 0061CH 0061DH PROGRAM            CODE
 00620H 009F2H 003D3H Mainmenu           CODE
 00A00H 018A4H 00EA5H func2men           CODE
 018B0H 024EFH 00C40H Func1men           CODE
 024F0H 02969H 0047AH TEEEEE             CODE
 02970H 03555H 00BE6H Groups             CODE
 03560H 03B57H 005F8H Func3men           CODE
 03B60H 044A2H 00943H Menutest           CODE
 044B0H 047C6H 00317H Password           CODE
 047D0H 04D07H 00538H edittest           CODE
 04D10H 04F3FH 00230H Ramatest           CODE
 04F40H 0555EH 0061FH Crt                CODE
 05560H 055D1H 00072H Dos                CODE
 055E0H 09419H 03E3AH System             CODE
 09420H 0DF07H 04AE8H DATA               DATA
 0DF10H 1A25FH 0C350H STACK              STACK
 1A260H 1A260H 00000H HEAP               HEAP

  Address         Publics by Value

 0000:00DA       @
 0062:0008       Clea
 0062:0079       Mm
 0062:0148       Mm2
 0062:02FE       Mm3
 00A0:003B       Openfil
 00A0:01F0       Inp
 00A0:035D       Redte
 00A0:0596       Rednev
 00A0:0843       Izmves
 00A0:0A47       Dobntest
 00A0:0DF1       Udaltst
 018B:0162       Testirovanie
 018B:088F       Otchet
 024F:0000       Dobavl
 024F:0060       Zap
 024F:00A0       Chten
 024F:00DA       Edit
 024F:0129       Insvop
 024F:02D4       Delvop
 0297:002F       Opengr
 0297:0152       Editgroups
 0297:02E5       Udalgroups
 0297:0843       Choisegroups
 0356:000C       Inp1
 0356:015E       Grf
 0356:01E5       Izmpass
 0356:0239       Izmstav
 0356:034C       Izmtim
 0356:03C9       Izmfot
 0356:0465       Izmfoo
 0356:0501       Izmgroup
 0356:058A       Saver
 03B6:0022       Menu
 044B:0033       Pass
 044B:02EF       Curoff
 044B:0303       Curon
 047D:0010       Razbien
 047D:00CA       Soedin
 047D:01CE       Edittext
 04D1:0008       Rama2
 04D1:009F       Rama1
 04D1:020B       Cleaall
 04F4:000D       @
 04F4:0177       TextMode
 04F4:018C       Window
 04F4:01CC       ClrScr
 04F4:01E6       ClrEol
 04F4:01FA       InsLine
 04F4:01FF       DelLine
 04F4:021F       GotoXY
 04F4:024B       WhereX
 04F4:0257       WhereY
 04F4:0263       TextColor
 04F4:027D       TextBackground
 04F4:0295       LowVideo
 04F4:029B       HighVideo
 04F4:02A1       NormVideo
 04F4:02A8       Delay
 04F4:02D4       Sound
 04F4:0301       NoSound
 04F4:0308       KeyPressed
 04F4:031A       ReadKey
 04F4:033C       AssignCrt
 0556:0000       GetDate
 0556:0022       SetDate
 0556:0036       GetTime
 0556:005B       SetTime
 0942:0002       OvrCodeList
 0942:0004       OvrHeapSize
 0942:0006       OvrDebugPtr
 0942:000A       OvrHeapOrg
 0942:000C       OvrHeapPtr
 0942:000E       OvrHeapEnd
 0942:0010       OvrLoadList
 0942:0012       OvrDosHandle
 0942:0014       OvrEmsHandle
 0942:0016       HeapOrg
 0942:001A       HeapPtr
 0942:001E       HeapEnd
 0942:0022       FreeList
 0942:0026       FreeZero
 0942:002A       HeapError
 0942:002E       ExitProc
 0942:0032       ExitCode
 0942:0034       ErrorAddr
 0942:0038       PrefixSeg
 0942:003A       StackLimit
 0942:003C       InOutRes
 0942:003E       RandSeed
 0942:0042       SelectorInc
 0942:0044       Seg0040
 0942:0046       SegA000
 0942:0048       SegB000
 0942:004A       SegB800
 0942:004C       Test8086
 0942:004D       Test8087
 0942:004E       FileMode
 0942:0052       vopros12
 0942:0680       per1
 0942:0682       per2
 0942:0684       rez
 0942:0685       ad
 0942:0686       par
 0942:068C       w
 0942:1E60       k
 0942:1E62       sostexit
 0942:1E63       lich
 0942:1E64       coltes
 0942:1E66       test
 0942:224E       test1
 0942:2A1E       vopros4
 0942:31EE       fotch
 0942:32EE       vesobv
 0942:32F0       vopros
 0942:391E       fa
 0942:399E       filper
 0942:3A9E       alfa
 0942:3AA0       fogr
 0942:3AA2       fgt
 0942:3B22       MGR
 0942:3C22       MFIO
 0942:3D22       filconf
 0942:3E22       filgroup
 0942:3F22       fg
 0942:3FA2       pas
 0942:3FA8       stav
 0942:3FAE       tim
 0942:3FB0       fot
 0942:40B0       foo
 0942:41B0       gro
 0942:42B0       Group
 0942:42BC       Fio
 0942:42DC       conf
 0942:45EA       fc
 0942:4874       CheckBreak
 0942:4875       CheckEOF
 0942:4876       DirectVideo
 0942:4877       CheckSnow
 0942:4878       LastMode
 0942:487A       TextAttr
 0942:487C       WindMin
 0942:487E       WindMax
 0942:4888       Input
 0942:4988       Output
 0942:4A88       SaveInt00
 0942:4A8C       SaveInt02
 0942:4A90       SaveInt1B
 0942:4A94       SaveInt21
 0942:4A98       SaveInt23
 0942:4A9C       SaveInt24
 0942:4AA0       SaveInt34
 0942:4AA4       SaveInt35
 0942:4AA8       SaveInt36
 0942:4AAC       SaveInt37
 0942:4AB0       SaveInt38
 0942:4AB4       SaveInt39
 0942:4AB8       SaveInt3A
 0942:4ABC       SaveInt3B
 0942:4AC0       SaveInt3C
 0942:4AC4       SaveInt3D
 0942:4AC8       SaveInt3E
 0942:4ACC       SaveInt3F
 0942:4AD0       SaveInt75

Line numbers for PROGRAM(LSTESTOR.PAS) segment PROGRAM

    14 0000:00DA    15 0000:00F7    16 0000:00FC    17 0000:0101
    18 0000:010B    20 0000:0110    21 0000:0115    22 0000:011A
    23 0000:011F    24 0000:0129    26 0000:0130    27 0000:0137
    28 0000:013E    29 0000:0143    30 0000:0148    31 0000:016D
    32 0000:0192    34 0000:0199    36 0000:01A3    37 0000:01A8
    38 0000:01AF    39 0000:01B4    40 0000:01BE    41 0000:01CF
    43 0000:01D2    44 0000:01DC    45 0000:01E3    46 0000:01E6
    48 0000:01ED    49 0000:01F2    50 0000:01F7    52 0000:01F9
    54 0000:0200    55 0000:0205    56 0000:020A    58 0000:020C
    60 0000:0213    61 0000:0218    62 0000:021D    64 0000:021F
    66 0000:0226    67 0000:022B    68 0000:0230    70 0000:0232
    72 0000:0239    73 0000:023E    74 0000:0243    77 0000:0245
    79 0000:024F    80 0000:0254    81 0000:025E    82 0000:0265
    83 0000:026A    84 0000:027B    86 0000:027E    87 0000:0288
    88 0000:028F    89 0000:0292    91 0000:0299    92 0000:029E
    93 0000:02A0    95 0000:02A5    97 0000:02AC    98 0000:02B1
    99 0000:02B6   100 0000:02BB   102 0000:02BD   104 0000:02C4
   105 0000:02C9   106 0000:02CE   107 0000:02D3   109 0000:02D5
   111 0000:02DC   112 0000:02E1   113 0000:02E6   114 0000:02EB
   116 0000:02ED   118 0000:02F4   119 0000:02F9   120 0000:02FE
   122 0000:0301   124 0000:0308   125 0000:030D   126 0000:0312
   127 0000:0317   129 0000:031A   131 0000:0321   132 0000:0326
   133 0000:032B   134 0000:0330   136 0000:0333   138 0000:033A
   139 0000:033F   140 0000:0344   141 0000:0349   143 0000:034C
   145 0000:0356   146 0000:035B   147 0000:0360   148 0000:0391
   149 0000:040C   150 0000:0455   151 0000:0486   152 0000:04B7
   153 0000:04E8   154 0000:050D   156 0000:0544   157 0000:0555
   158 0000:0578   159 0000:0580   160 0000:059C   161 0000:05D9
   162 0000:05E1   165 0000:05E4   167 0000:05EB   168 0000:05F2
   169 0000:05F9   170 0000:05FE   171 0000:0603   172 0000:060A
   173 0000:060D   174 0000:0612   176 0000:0615

Line numbers for Mainmenu(MAINMENU.PAS) segment Mainmenu

    23 0062:0008    24 0062:0016    25 0062:001F    26 0062:003C
    30 0062:0079    31 0062:0083    32 0062:0087    33 0062:008C
    34 0062:0091    35 0062:00A2    36 0062:00B3    37 0062:00C4
    38 0062:00D5    39 0062:00E4    43 0062:0148    44 0062:0152
    45 0062:0156    46 0062:015B    47 0062:0160    48 0062:0171
    49 0062:0182    50 0062:0193    51 0062:01A4    52 0062:01B5
    53 0062:01C6    54 0062:01D5    58 0062:02FE    59 0062:0308
    60 0062:030C    61 0062:0311    62 0062:0316    63 0062:0327
    64 0062:0338    65 0062:0349    66 0062:035A    67 0062:036B
    68 0062:037C    69 0062:038D    70 0062:039E    71 0062:03AF
    72 0062:03C0    73 0062:03CF

Line numbers for func2men(FUNC2MEN.PAS) segment func2men

    29 00A0:003B    30 00A0:0061    31 00A0:0074    33 00A0:0083
    35 00A0:0090    36 00A0:0099    37 00A0:009C    38 00A0:00A1
    39 00A0:00A6    40 00A0:00AF    41 00A0:00F8    42 00A0:0105
    43 00A0:0117    44 00A0:0129    45 00A0:013B    46 00A0:014C
    47 00A0:015A    48 00A0:015D    50 00A0:0164    52 00A0:016B
    53 00A0:0170    54 00A0:0175    55 00A0:017E    56 00A0:01A4
    57 00A0:01AD    58 00A0:01C9    60 00A0:01CE    62 00A0:01E0
    74 00A0:01F0    75 00A0:01FF    76 00A0:0204    77 00A0:0211
    78 00A0:0216    81 00A0:021F    82 00A0:0228    83 00A0:022A
    84 00A0:0249    86 00A0:025B    87 00A0:0263    89 00A0:0266
    90 00A0:0278    91 00A0:027A    92 00A0:0299    93 00A0:02A0
    94 00A0:02A3    95 00A0:02A8    96 00A0:02C4    97 00A0:02EE
    99 00A0:02F7   100 00A0:0316   113 00A0:035D   114 00A0:036C
   115 00A0:0371   116 00A0:0376   117 00A0:037B   118 00A0:0380
   119 00A0:0385   120 00A0:038E   122 00A0:03B4   123 00A0:03C2
   124 00A0:03F2   125 00A0:03F4   126 00A0:0407   127 00A0:0410
   128 00A0:044D   129 00A0:0452   130 00A0:0457   131 00A0:0460
   132 00A0:0495   133 00A0:049C   134 00A0:04AD   135 00A0:04B6
   136 00A0:04F3   137 00A0:04FE   138 00A0:0503   139 00A0:0508
   140 00A0:050D   154 00A0:0596   155 00A0:05A5   156 00A0:05AA
   157 00A0:05AF   158 00A0:05B4   159 00A0:05B9   160 00A0:05C2
   161 00A0:05E8   163 00A0:05EA   164 00A0:05F7   165 00A0:0626
   166 00A0:0628   167 00A0:0631   169 00A0:0657   170 00A0:0664
   171 00A0:066A   172 00A0:066D   173 00A0:0673   174 00A0:0675
   175 00A0:067A   176 00A0:068C   177 00A0:0695   178 00A0:06E7
   179 00A0:06EC   180 00A0:06F1   181 00A0:06FA   182 00A0:072E
   183 00A0:0737   184 00A0:076B   185 00A0:0770   186 00A0:0777
   187 00A0:0788   188 00A0:0791   189 00A0:07E3   190 00A0:07EE
   191 00A0:07F3   192 00A0:07F8   193 00A0:07FD   205 00A0:0843
   206 00A0:0852   207 00A0:0857   208 00A0:085C   209 00A0:0861
   210 00A0:0866   211 00A0:086F   213 00A0:0895   214 00A0:08A3
   215 00A0:08AB   216 00A0:08AE   217 00A0:08DE   218 00A0:08E0
   219 00A0:08F3   220 00A0:08F8   221 00A0:08FD   222 00A0:0906
   223 00A0:093A   224 00A0:0943   225 00A0:0969   226 00A0:0976
   227 00A0:097B   228 00A0:0982   229 00A0:0984   230 00A0:098A
   231 00A0:0995   245 00A0:0A47   246 00A0:0A56   247 00A0:0A5B
   248 00A0:0A60   249 00A0:0A65   250 00A0:0A70   251 00A0:0A8F
   252 00A0:0A94   253 00A0:0A9D   254 00A0:0AC3   255 00A0:0ACA
   256 00A0:0ADB   257 00A0:0AE6   258 00A0:0B26   260 00A0:0B31
   261 00A0:0B3C   262 00A0:0B5B   263 00A0:0B60   264 00A0:0B65
   265 00A0:0B6E   266 00A0:0B94   267 00A0:0B9D   268 00A0:0BA4
   269 00A0:0BCC   270 00A0:0BF2   271 00A0:0BF9   272 00A0:0BFE
   273 00A0:0C0F   274 00A0:0C1A   275 00A0:0C72   276 00A0:0C7C
   277 00A0:0C81   278 00A0:0C86   279 00A0:0C8B   280 00A0:0C91
   281 00A0:0CA3   282 00A0:0CB5   283 00A0:0CC7   284 00A0:0CD9
   285 00A0:0CEA   286 00A0:0CEF   287 00A0:0CF4   288 00A0:0D02
   289 00A0:0D05   290 00A0:0D0C   291 00A0:0D17   293 00A0:0D21
   294 00A0:0D26   295 00A0:0D2B   296 00A0:0D34   298 00A0:0D7B
   299 00A0:0D89   300 00A0:0DAC   301 00A0:0DAE   303 00A0:0DC1
   304 00A0:0DC6   305 00A0:0DCB   306 00A0:0DD0   317 00A0:0DF1
   318 00A0:0DFF   319 00A0:0E04   320 00A0:0E09   321 00A0:0E0E
   322 00A0:0E13   323 00A0:0E1C   325 00A0:0E41   326 00A0:0E4E
   327 00A0:0E55   328 00A0:0E57   329 00A0:0E86   330 00A0:0E88
   331 00A0:0E94   332 00A0:0E99   333 00A0:0E9E   334 00A0:0EA3

Line numbers for Func1men(FUNC1MEN.PAS) segment Func1men

    41 018B:0162    42 018B:0171    43 018B:0176    44 018B:017B
    45 018B:0180    46 018B:0185    47 018B:018A    48 018B:0195
    49 018B:01B4    50 018B:01C6    51 018B:01D8    52 018B:01EA
    53 018B:01FB    55 018B:0202    56 018B:0207    58 018B:020A
    60 018B:0211    61 018B:0216    62 018B:021B    63 018B:0220
    64 018B:0225    65 018B:022E    66 018B:0254    67 018B:0270
    68 018B:0275    70 018B:027A    72 018B:0281    74 018B:0286
    76 018B:028D    77 018B:0292    79 018B:0295    80 018B:02AF
    81 018B:02B4    82 018B:02CC    83 018B:02E9    86 018B:0304
    87 018B:0308    88 018B:031F    90 018B:0326    91 018B:032C
    93 018B:032E    95 018B:0346    96 018B:0361    97 018B:0365
    98 018B:036E    99 018B:0374   100 018B:0376   101 018B:038F
   103 018B:039B   105 018B:03B6   106 018B:03BB   107 018B:03C0
   108 018B:03CD   109 018B:03D4   110 018B:03D9   111 018B:03E2
   112 018B:0408   113 018B:0415   114 018B:0442   116 018B:044C
   117 018B:0461   118 018B:048D   119 018B:0493   120 018B:049D
   121 018B:04B7   124 018B:04C1   125 018B:04C5   126 018B:04D9
   128 018B:04F1   129 018B:0517   130 018B:051B   131 018B:0524
   132 018B:052A   133 018B:052C   134 018B:054E   135 018B:0557
   136 018B:0564   137 018B:0569   138 018B:0572   139 018B:0598
   140 018B:05A1   142 018B:05AB   144 018B:05B5   145 018B:05D4
   146 018B:0625   147 018B:062B   149 018B:0631   150 018B:0641
   151 018B:0656   153 018B:0694   154 018B:069D   155 018B:06BA
   156 018B:06C0   157 018B:06C7   158 018B:06CC   159 018B:06D1
   161 018B:06E4   163 018B:06F0   164 018B:06F9   166 018B:0700
   167 018B:0705   169 018B:0708   171 018B:0724   172 018B:074B
   174 018B:0762   175 018B:0776   177 018B:0799   179 018B:079B
   181 018B:07A0   182 018B:07BD   184 018B:07C4   186 018B:07CE
   187 018B:07DE   188 018B:07E7   189 018B:080D   190 018B:0816
   191 018B:0833   194 018B:083B   195 018B:083E   196 018B:084A
   209 018B:088F   210 018B:089E   211 018B:08A4   212 018B:08AA
   213 018B:08B0   214 018B:08B7   215 018B:08BE   217 018B:08CD
   219 018B:08D7   221 018B:08E0   222 018B:08EF   225 018B:08F1
   227 018B:0900   228 018B:0905   230 018B:0920   231 018B:0944
   233 018B:095A   234 018B:096A   236 018B:098E   237 018B:0997
   238 018B:099F   239 018B:09CA   240 018B:09F1   242 018B:0A08
   244 018B:0A0E   246 018B:0A3C   248 018B:0A42   250 018B:0A70
   252 018B:0A76   254 018B:0A8D   256 018B:0A93   257 018B:0A98
   258 018B:0A9D   259 018B:0B0E   261 018B:0B17   262 018B:0B3D
   264 018B:0B58   265 018B:0B5D   267 018B:0B76   268 018B:0B9F
   269 018B:0BD3   271 018B:0BDA   272 018B:0BF6   273 018B:0BFB
   276 018B:0C00   277 018B:0C0C   278 018B:0C13   280 018B:0C2F
   281 018B:0C3E

Line numbers for TEEEEE(TEEEEE.PAS) segment TEEEEE

    58 024F:0000    59 024F:0024    60 024F:0044    61 024F:005C
    65 024F:0060    66 024F:0084    67 024F:009C    71 024F:00A0
    72 024F:00AA    73 024F:00BF    74 024F:00D6    78 024F:00DA
    79 024F:00E4    80 024F:00F9    81 024F:0110    82 024F:0125
    90 024F:0129    91 024F:014D    92 024F:0164    94 024F:0178
    95 024F:0182    97 024F:0185    99 024F:01A4   100 024F:01B4
   101 024F:01C9   102 024F:01D3   103 024F:01DD   105 024F:01E0
   106 024F:01F0   107 024F:0205   108 024F:020F   110 024F:025A
   111 024F:026E   112 024F:0280   113 024F:0297   114 024F:02A1
   115 024F:02B5   116 024F:02C9   125 024F:02D4   126 024F:02E3
   127 024F:02FA   128 024F:0309   129 024F:0328   130 024F:0342
   131 024F:0352   132 024F:0364   133 024F:0377   135 024F:03BA
   137 024F:03CC   138 024F:03DE   140 024F:03F7   141 024F:040B
   142 024F:041B   143 024F:042A   144 024F:0439   145 024F:0454
   146 024F:0466   147 024F:0476

Line numbers for Groups(GROUPS.PAS) segment Groups

    27 0297:002F    28 0297:003E    29 0297:0043    30 0297:0056
    32 0297:0066    34 0297:0072    36 0297:007B    37 0297:008D
    38 0297:009F    39 0297:00B1    40 0297:00C2    41 0297:00D0
    42 0297:00D2    44 0297:00D9    47 0297:00EA    48 0297:00EF
    58 0297:0152    59 0297:0161    60 0297:0168    61 0297:016B
    62 0297:0170    63 0297:0175    64 0297:017E    65 0297:01A4
    66 0297:01BF    67 0297:01C8    68 0297:01EE    69 0297:0209
    70 0297:021B    71 0297:022D    72 0297:023F    73 0297:0250
    74 0297:025E    75 0297:0260    77 0297:0267    78 0297:0278
    79 0297:0289    80 0297:02A9    82 0297:02C0    99 0297:02E5
   100 0297:02F4   102 0297:02FE   103 0297:0313   104 0297:032A
   105 0297:0330   106 0297:0335   107 0297:033A   108 0297:033F
   109 0297:035A   110 0297:035D   111 0297:036C   112 0297:037D
   113 0297:0394   114 0297:03A6   115 0297:03BF   116 0297:03C2
   118 0297:03F1   119 0297:0408   120 0297:040C   122 0297:0424
   123 0297:042A   124 0297:042D   125 0297:044F   126 0297:0453
   127 0297:045C   129 0297:0462   130 0297:0472   132 0297:0494
   134 0297:04A0   135 0297:04CC   136 0297:04DC   137 0297:04E2
   138 0297:04E5   139 0297:050B   140 0297:0510   141 0297:0515
   142 0297:051A   143 0297:052D   145 0297:0537   146 0297:054C
   147 0297:0563   148 0297:0569   150 0297:0598   151 0297:05AF
   153 0297:05C1   154 0297:05C7   155 0297:05CA   156 0297:05DA
   157 0297:05FC   159 0297:0620   160 0297:062C   161 0297:0658
   162 0297:0668   163 0297:066E   164 0297:0671   165 0297:0686
   166 0297:0695   167 0297:06B4   168 0297:06CE   169 0297:06DD
   170 0297:06EE   171 0297:06FF   172 0297:0704   173 0297:0709
   175 0297:073B   177 0297:076E   178 0297:0784   179 0297:079B
   181 0297:07B2   182 0297:07BE   183 0297:07CD   184 0297:07DC
   185 0297:07EB   186 0297:0805   187 0297:0816   188 0297:0825
   205 0297:0843   206 0297:0852   208 0297:085C   209 0297:0871
   210 0297:0888   211 0297:088E   212 0297:0893   213 0297:0898
   214 0297:089D   215 0297:08B0   216 0297:08CB   217 0297:08CE
   218 0297:08E5   219 0297:08F7   220 0297:0910   221 0297:0913
   223 0297:0942   224 0297:0959   225 0297:095D   227 0297:0975
   228 0297:097B   229 0297:097E   230 0297:09A0   231 0297:09A4
   232 0297:09AD   234 0297:09B3   235 0297:09C3   237 0297:09E5
   239 0297:09F1   240 0297:0A1D   241 0297:0A2D   242 0297:0A33
   243 0297:0A36   244 0297:0A5B   245 0297:0A60   246 0297:0A65
   247 0297:0A6A   248 0297:0A7D   250 0297:0A87   251 0297:0A9C
   252 0297:0AB3   253 0297:0AB9   255 0297:0AE8   256 0297:0AFF
   258 0297:0B10   259 0297:0B16   260 0297:0B19   261 0297:0B29
   262 0297:0B4B   264 0297:0B6F   265 0297:0B7B   266 0297:0BA7
   267 0297:0BB7   268 0297:0BBD   269 0297:0BBF   270 0297:0BE4

Line numbers for Func3men(FUNC3MEN.PAS) segment Func3men

    55 0356:000C    56 0356:001B    57 0356:0020    58 0356:002D
    61 0356:0036    62 0356:003F    63 0356:0041    64 0356:0060
    66 0356:0072    67 0356:007A    69 0356:007D    70 0356:008F
    71 0356:0091    72 0356:00B0    73 0356:00B7    74 0356:00BA
    75 0356:00D6    76 0356:0100    78 0356:0109    79 0356:0128
    83 0356:015E    84 0356:016C    85 0356:0185    86 0356:0197
    88 0356:01A0    89 0356:01C5    91 0356:01CC    92 0356:01E3
    96 0356:01E5    97 0356:01EF    98 0356:01F4    99 0356:01F9
   100 0356:0203   101 0356:0214   108 0356:0239   109 0356:0247
   110 0356:024C   111 0356:0251   112 0356:0256   113 0356:025B
   115 0356:0264   116 0356:028E   117 0356:02CC   118 0356:02ED
   119 0356:031B   120 0356:0324   121 0356:0329   125 0356:034C
   126 0356:035A   127 0356:035F   128 0356:0364   129 0356:0369
   130 0356:036E   131 0356:0377   132 0356:039C   133 0356:03A9
   134 0356:03AE   135 0356:03B4   139 0356:03C9   140 0356:03D7
   141 0356:03DC   142 0356:03E1   143 0356:03E6   144 0356:03EB
   145 0356:03F4   146 0356:0419   147 0356:0422   148 0356:043E
   149 0356:0450   153 0356:0465   154 0356:0473   155 0356:0478
   156 0356:047D   157 0356:0482   158 0356:0487   159 0356:0490
   160 0356:04B5   161 0356:04BE   162 0356:04DA   163 0356:04EC
   167 0356:0501   168 0356:050F   169 0356:0514   170 0356:0519
   171 0356:051E   172 0356:0523   173 0356:052C   174 0356:0551
   175 0356:055A   176 0356:0576   177 0356:0588   181 0356:058A
   182 0356:0594   183 0356:05A7   184 0356:05BE   185 0356:05CD
   186 0356:05DF   187 0356:05F6

Line numbers for Menutest(MENUTEST.PAS) segment Menutest

    28 03B6:0022    29 03B6:0046    30 03B6:004C    31 03B6:0053
    32 03B6:0058    33 03B6:005F    35 03B6:006B    37 03B6:008D
    39 03B6:009F    40 03B6:00A6    42 03B6:00C1    43 03B6:00DB
    45 03B6:00E5    47 03B6:00ED    48 03B6:00F7    50 03B6:0105
    52 03B6:010B    54 03B6:0112    56 03B6:0118    58 03B6:0126
    60 03B6:0156    61 03B6:015F    62 03B6:0168    64 03B6:016F
    65 03B6:018B    67 03B6:0191    69 03B6:01A2    70 03B6:01CC
    72 03B6:01D4    74 03B6:01DE    75 03B6:01E4    77 03B6:01EC
    78 03B6:01F3    79 03B6:01F8    80 03B6:01FF    81 03B6:0206
    82 03B6:0227    84 03B6:0245    85 03B6:025F    87 03B6:026C
    88 03B6:027F    90 03B6:029A    91 03B6:02E2    93 03B6:02EC
    94 03B6:02F9    95 03B6:0315    96 03B6:031D    97 03B6:0323
    99 03B6:0341   100 03B6:0348   101 03B6:037E   102 03B6:03AA
   104 03B6:03B4   105 03B6:03BD   106 03B6:03BF   107 03B6:03C8
   109 03B6:03CF   110 03B6:03D6   112 03B6:03D9   114 03B6:03E0
   115 03B6:03F3   117 03B6:03F6   118 03B6:0401   120 03B6:040B
   121 03B6:0412   122 03B6:0433   123 03B6:045F   125 03B6:0476
   127 03B6:04A2   128 03B6:04A9   129 03B6:04CA   130 03B6:04F6
   132 03B6:04F9   133 03B6:050B   134 03B6:051D   135 03B6:0524
   136 03B6:0545   137 03B6:0571   139 03B6:0578   141 03B6:0585
   143 03B6:05B1   144 03B6:05B8   145 03B6:05D9   146 03B6:0605
   148 03B6:0608   149 03B6:061A   151 03B6:0635   152 03B6:0656
   153 03B6:0698   154 03B6:06A2   155 03B6:06C3   156 03B6:06CA
   157 03B6:06F6   159 03B6:06FD   161 03B6:0700   163 03B6:070A
   164 03B6:0711   165 03B6:0732   166 03B6:075E   168 03B6:0765
   169 03B6:076C   170 03B6:078D   171 03B6:07B9   173 03B6:07BC
   175 03B6:07D0   176 03B6:07D7   177 03B6:07E9   178 03B6:07F1
   179 03B6:0806   180 03B6:0832   181 03B6:0839   183 03B6:0854
   184 03B6:0866   185 03B6:0887   186 03B6:08B3   188 03B6:08BD
   190 03B6:08C4   191 03B6:08D6   192 03B6:08E8   193 03B6:08EF
   194 03B6:0910   197 03B6:093C   198 03B6:093F

Line numbers for Password(PASSWORD.PAS) segment Password

    36 044B:0033    37 044B:0042    38 044B:0046    39 044B:004A
    40 044B:004E    41 044B:0053    42 044B:005E    43 044B:0076
    44 044B:007F    45 044B:009D    46 044B:00B5    47 044B:00D7
    48 044B:00EF    49 044B:0115    50 044B:0144    51 044B:0166
    52 044B:019E    53 044B:01C0    54 044B:01D8    55 044B:01E1
    56 044B:01FF    58 044B:0217    59 044B:0220    60 044B:0222
    61 044B:023D    62 044B:0284    63 044B:029C    64 044B:02BB
    65 044B:02E2    66 044B:02E8    67 044B:02EB    71 044B:02EF
    73 044B:02F9    74 044B:02FB    75 044B:02FD    76 044B:02FF
    78 044B:0301    82 044B:0303    84 044B:030D    85 044B:030F
    86 044B:0311    87 044B:0313    89 044B:0315

Line numbers for edittest(EDITTEST.PAS) segment edittest

    27 047D:0010    28 047D:0034    30 047D:0040    32 047D:004C
    33 047D:00A8    34 047D:00AF    35 047D:00B6    42 047D:00CA
    43 047D:00EE    45 047D:00FA    46 047D:0114    48 047D:0120
    49 047D:0198    50 047D:01A2    51 047D:01AC    62 047D:01CE
    63 047D:01F2    64 047D:01F9    65 047D:01FE    66 047D:020E
    68 047D:021A    70 047D:0226    71 047D:0245    72 047D:0284
    73 047D:028B    74 047D:0292    75 047D:0298    76 047D:029E
    78 047D:02BD    79 047D:02C6    80 047D:02C8    81 047D:02E6
    83 047D:02F7    85 047D:02F9    87 047D:030A    88 047D:0319
    90 047D:031C    92 047D:032D    93 047D:0334    94 047D:0336
    95 047D:0346    96 047D:034C    98 047D:036B   100 047D:037F
   101 047D:0389   102 047D:0393   103 047D:03C8   104 047D:03D6
   105 047D:03D9   106 047D:03EA   107 047D:0405   108 047D:0415
   110 047D:0418   111 047D:0422   113 047D:0429   114 047D:0430
   115 047D:0433   116 047D:0443   118 047D:0462   120 047D:0469
   121 047D:0470   122 047D:0473   123 047D:0483   125 047D:04A2
   127 047D:04A9   128 047D:04B0   129 047D:04B3   130 047D:04C3
   132 047D:04E2   134 047D:04E9   135 047D:04F0   136 047D:04F3
   137 047D:0503   139 047D:0522   141 047D:0525   142 047D:0534

Line numbers for Ramatest(RAMATEST.PAS) segment Ramatest

    21 04D1:0008    22 04D1:0016    23 04D1:0023    24 04D1:002A
    25 04D1:0031    27 04D1:003B    28 04D1:004F    29 04D1:0067
    30 04D1:006D    31 04D1:0074    32 04D1:0081    33 04D1:0086
    37 04D1:009F    38 04D1:00AD    39 04D1:00B2    40 04D1:00B9
    41 04D1:00BE    42 04D1:00C5    43 04D1:00CE    44 04D1:00E6
    45 04D1:00F2    46 04D1:0111    47 04D1:0129    49 04D1:0135
    50 04D1:0149    51 04D1:0161    52 04D1:0175    53 04D1:018D
    54 04D1:0194    55 04D1:01AC    56 04D1:01B8    57 04D1:01D7
    58 04D1:01FC    59 04D1:0209    62 04D1:020B    63 04D1:0215
    64 04D1:0222    65 04D1:0229    66 04D1:022E

Program entry point at 0000:00DA
